target datalayout = "e-m:e-p270:32:32-p271:32:32-p272:64:64-i64:64-i128:128-f80:128-n8:16:32:64-S128"
target triple = "x86_64-pc-linux-gnu"

%"class.std::__cxx11::basic_string" = type { %"struct.std::__cxx11::basic_string<char>::_Alloc_hider", i64, %union.anon }
%"struct.std::__cxx11::basic_string<char>::_Alloc_hider" = type { ptr }
%union.anon = type { i64, [8 x i8] }
%"class.std::shared_ptr" = type { %"class.std::__shared_ptr" }
%"class.std::__shared_ptr" = type { ptr, %"class.std::__shared_count" }
%"class.std::__shared_count" = type { ptr }
%"class.std::shared_ptr.13" = type { %"class.std::__shared_ptr.14" }
%"class.std::__shared_ptr.14" = type { ptr, %"class.std::__shared_count" }
%"class.std::shared_ptr.16" = type { %"class.std::__shared_ptr.17" }
%"class.std::__shared_ptr.17" = type { ptr, %"class.std::__shared_count" }
%"class.std::shared_ptr.19" = type { %"class.std::__shared_ptr.20" }
%"class.std::__shared_ptr.20" = type { ptr, %"class.std::__shared_count" }
%"class.std::vector.22" = type { %"struct.std::_Vector_base.23" }
%"struct.std::_Vector_base.23" = type { %"struct.std::_Vector_base<rocksdb::DbPath, std::allocator<rocksdb::DbPath>>::_Vector_impl" }
%"struct.std::_Vector_base<rocksdb::DbPath, std::allocator<rocksdb::DbPath>>::_Vector_impl" = type { %"struct.std::_Vector_base<rocksdb::DbPath, std::allocator<rocksdb::DbPath>>::_Vector_impl_data" }
%"struct.std::_Vector_base<rocksdb::DbPath, std::allocator<rocksdb::DbPath>>::_Vector_impl_data" = type { ptr, ptr, ptr }
%"class.std::shared_ptr.27" = type { %"class.std::__shared_ptr.28" }
%"class.std::__shared_ptr.28" = type { ptr, %"class.std::__shared_count" }
%"class.std::vector.30" = type { %"struct.std::_Vector_base.31" }
%"struct.std::_Vector_base.31" = type { %"struct.std::_Vector_base<std::shared_ptr<rocksdb::EventListener>, std::allocator<std::shared_ptr<rocksdb::EventListener>>>::_Vector_impl" }
%"struct.std::_Vector_base<std::shared_ptr<rocksdb::EventListener>, std::allocator<std::shared_ptr<rocksdb::EventListener>>>::_Vector_impl" = type { %"struct.std::_Vector_base<std::shared_ptr<rocksdb::EventListener>, std::allocator<std::shared_ptr<rocksdb::EventListener>>>::_Vector_impl_data" }
%"struct.std::_Vector_base<std::shared_ptr<rocksdb::EventListener>, std::allocator<std::shared_ptr<rocksdb::EventListener>>>::_Vector_impl_data" = type { ptr, ptr, ptr }
%"class.std::shared_ptr.38" = type { %"class.std::__shared_ptr.39" }
%"class.std::__shared_ptr.39" = type { ptr, %"class.std::__shared_count" }
%"class.rocksdb::SmallEnumSet" = type { i64 }
%"class.std::shared_ptr.41" = type { %"class.std::__shared_ptr.42" }
%"class.std::__shared_ptr.42" = type { ptr, %"class.std::__shared_count" }
%"struct.rocksdb::ImmutableDBOptions" = type { i8, i8, i8, i8, i8, i8, i8, i8, i8, ptr, %"class.std::shared_ptr", %"class.std::shared_ptr.13", %"class.std::shared_ptr.16", i8, i32, %"class.std::shared_ptr.19", i8, %"class.std::vector.22", %"class.std::__cxx11::basic_string", %"class.std::__cxx11::basic_string", i64, i64, i64, i64, i64, i32, i64, i64, i64, i64, i8, i8, i8, i8, i8, i8, i8, i64, %"class.std::shared_ptr.27", i8, %"class.std::vector.30", i8, i8, i8, i8, i8, i64, i64, i8, i8, i8, i8, %"class.std::shared_ptr.35", ptr, i8, i8, i8, i8, i8, i8, i8, i8, i8, i8, i8, i8, i8, i8, i64, %"class.std::shared_ptr.38", i8, i32, i64, i8, %"class.std::__cxx11::basic_string", %"class.rocksdb::SmallEnumSet", i8, %"class.std::shared_ptr.41", i8, i64, i64, i64, i8, i8, %"class.std::shared_ptr.47", ptr, ptr, ptr }
%"class.std::shared_ptr.47" = type { %"class.std::__shared_ptr.48" }
%"class.std::__shared_ptr.48" = type { ptr, %"class.std::__shared_count" }
%"class.std::shared_ptr.35" = type { %"class.std::__shared_ptr.36" }
%"class.std::__shared_ptr.36" = type { ptr, %"class.std::__shared_count" }
%"class.std::vector.78" = type { %"struct.std::_Vector_base.79" }
%"struct.std::_Vector_base.79" = type { %"struct.std::_Vector_base<unsigned long, std::allocator<unsigned long>>::_Vector_impl" }
%"struct.std::_Vector_base<unsigned long, std::allocator<unsigned long>>::_Vector_impl" = type { %"struct.std::_Vector_base<unsigned long, std::allocator<unsigned long>>::_Vector_impl_data" }
%"struct.std::_Vector_base<unsigned long, std::allocator<unsigned long>>::_Vector_impl_data" = type { ptr, ptr, ptr }
%"struct.std::atomic.105" = type { %"struct.std::__atomic_base.106" }
%"struct.std::__atomic_base.106" = type { i32 }
%"struct.std::atomic.68" = type { %"struct.std::__atomic_base.69" }
%"struct.std::__atomic_base.69" = type { i8 }
%"struct.std::atomic.66" = type { %"struct.std::__atomic_base.67" }
%"struct.std::__atomic_base.67" = type { i64 }
%"class.std::unique_ptr.330" = type { %"struct.std::__uniq_ptr_data.331" }
%"struct.std::__uniq_ptr_data.331" = type { %"class.std::__uniq_ptr_impl.332" }
%"class.std::__uniq_ptr_impl.332" = type { %"class.std::tuple.333" }
%"class.std::tuple.333" = type { %"struct.std::_Tuple_impl.334" }
%"struct.std::_Tuple_impl.334" = type { %"struct.std::_Head_base.337" }
%"struct.std::_Head_base.337" = type { ptr }
%"struct.rocksdb::ImmutableCFOptions" = type <{ i8, i8, [6 x i8], ptr, %"class.rocksdb::InternalKeyComparator", %"class.std::shared_ptr.416", ptr, %"class.std::shared_ptr.419", i32, i32, i64, i8, [7 x i8], ptr, %"class.std::shared_ptr.408", %"class.std::vector.411", i32, i8, [3 x i8], i32, i8, i8, i8, i8, %"class.std::shared_ptr.390", %"class.std::vector.22", %"class.std::shared_ptr.425", %"class.std::shared_ptr.428", %"class.std::shared_ptr.35", i8, [7 x i8] }>
%"class.rocksdb::InternalKeyComparator" = type { %"class.rocksdb::CompareInterface", %"class.rocksdb::UserComparatorWrapper" }
%"class.rocksdb::CompareInterface" = type { ptr }
%"class.rocksdb::UserComparatorWrapper" = type { ptr }
%"class.std::shared_ptr.416" = type { %"class.std::__shared_ptr.417" }
%"class.std::__shared_ptr.417" = type { ptr, %"class.std::__shared_count" }
%"class.std::shared_ptr.419" = type { %"class.std::__shared_ptr.420" }
%"class.std::__shared_ptr.420" = type { ptr, %"class.std::__shared_count" }
%"class.std::shared_ptr.408" = type { %"class.std::__shared_ptr.409" }
%"class.std::__shared_ptr.409" = type { ptr, %"class.std::__shared_count" }
%"class.std::vector.411" = type { %"struct.std::_Vector_base.412" }
%"struct.std::_Vector_base.412" = type { %"struct.std::_Vector_base<std::shared_ptr<rocksdb::TablePropertiesCollectorFactory>, std::allocator<std::shared_ptr<rocksdb::TablePropertiesCollectorFactory>>>::_Vector_impl" }
%"struct.std::_Vector_base<std::shared_ptr<rocksdb::TablePropertiesCollectorFactory>, std::allocator<std::shared_ptr<rocksdb::TablePropertiesCollectorFactory>>>::_Vector_impl" = type { %"struct.std::_Vector_base<std::shared_ptr<rocksdb::TablePropertiesCollectorFactory>, std::allocator<std::shared_ptr<rocksdb::TablePropertiesCollectorFactory>>>::_Vector_impl_data" }
%"struct.std::_Vector_base<std::shared_ptr<rocksdb::TablePropertiesCollectorFactory>, std::allocator<std::shared_ptr<rocksdb::TablePropertiesCollectorFactory>>>::_Vector_impl_data" = type { ptr, ptr, ptr }
%"class.std::shared_ptr.390" = type { %"class.std::__shared_ptr.391" }
%"class.std::__shared_ptr.391" = type { ptr, %"class.std::__shared_count" }
%"class.std::shared_ptr.425" = type { %"class.std::__shared_ptr.426" }
%"class.std::__shared_ptr.426" = type { ptr, %"class.std::__shared_count" }
%"class.std::shared_ptr.428" = type { %"class.std::__shared_ptr.429" }
%"class.std::__shared_ptr.429" = type { ptr, %"class.std::__shared_count" }
%"class.rocksdb::ColumnFamilyData" = type { i32, %"class.std::__cxx11::basic_string", ptr, ptr, %"struct.std::atomic.105", %"struct.std::atomic.68", %"struct.std::atomic.68", %"struct.std::atomic.68", %"class.rocksdb::InternalKeyComparator", %"class.std::vector.385", %"struct.rocksdb::ColumnFamilyOptions", %"struct.rocksdb::ImmutableOptions", %"struct.rocksdb::MutableCFOptions", i8, %"class.std::unique_ptr.431", %"class.std::unique_ptr.439", %"class.std::unique_ptr.447", %"class.std::unique_ptr.455", ptr, ptr, %"class.rocksdb::MemTableList", ptr, %"struct.std::atomic.66", %"class.std::unique_ptr.463", ptr, ptr, i64, %"class.std::unique_ptr.471", ptr, %"class.std::unique_ptr.330", i8, i8, i64, i8, i64, %"class.std::vector.479", i8, %"class.std::__cxx11::basic_string", %"class.std::shared_ptr.484", i8, %"struct.std::atomic.66" }
%"class.std::vector.385" = type { %"struct.std::_Vector_base.386" }
%"struct.std::_Vector_base.386" = type { %"struct.std::_Vector_base<std::unique_ptr<rocksdb::InternalTblPropCollFactory>, std::allocator<std::unique_ptr<rocksdb::InternalTblPropCollFactory>>>::_Vector_impl" }
%"struct.std::_Vector_base<std::unique_ptr<rocksdb::InternalTblPropCollFactory>, std::allocator<std::unique_ptr<rocksdb::InternalTblPropCollFactory>>>::_Vector_impl" = type { %"struct.std::_Vector_base<std::unique_ptr<rocksdb::InternalTblPropCollFactory>, std::allocator<std::unique_ptr<rocksdb::InternalTblPropCollFactory>>>::_Vector_impl_data" }
%"struct.std::_Vector_base<std::unique_ptr<rocksdb::InternalTblPropCollFactory>, std::allocator<std::unique_ptr<rocksdb::InternalTblPropCollFactory>>>::_Vector_impl_data" = type { ptr, ptr, ptr }
%"struct.rocksdb::ColumnFamilyOptions" = type { %"struct.rocksdb::AdvancedColumnFamilyOptions.base", ptr, %"class.std::shared_ptr.416", ptr, %"class.std::shared_ptr.419", i64, i8, i8, [6 x i8], %"struct.rocksdb::CompressionOptions", %"struct.rocksdb::CompressionOptions", i32, %"class.std::shared_ptr.390", i64, i64, i8, %"class.std::shared_ptr.422", %"class.std::vector.22", %"class.std::shared_ptr.425", %"class.std::shared_ptr.428", i32, i32 }
%"struct.rocksdb::AdvancedColumnFamilyOptions.base" = type <{ i32, i32, i32, [4 x i8], i64, i8, [7 x i8], i64, double, ptr, double, i8, [7 x i8], i64, %"class.std::shared_ptr.390", i32, [4 x i8], i64, %"class.std::vector.393", i32, i32, i32, [4 x i8], i64, i32, i8, [3 x i8], double, %"class.std::vector.398", i64, i64, i64, i8, i8, [2 x i8], %"class.rocksdb::CompactionOptionsUniversal", [4 x i8], %"struct.rocksdb::CompactionOptionsFIFO", i64, %"class.std::shared_ptr.408", %"class.std::vector.411", i64, i8, i8, i8, i8, i8, [3 x i8], i64, i64, i64, i8, i8, i8, [5 x i8], i64, i64, i8, [7 x i8], i64, i64, i8, i8, [6 x i8], double, double, i64, i32, [4 x i8], %"class.std::shared_ptr.35", i8, [3 x i8], i32, i8, i8, [2 x i8], i32, i8 }>
%"class.std::vector.393" = type { %"struct.std::_Vector_base.394" }
%"struct.std::_Vector_base.394" = type { %"struct.std::_Vector_base<rocksdb::CompressionType, std::allocator<rocksdb::CompressionType>>::_Vector_impl" }
%"struct.std::_Vector_base<rocksdb::CompressionType, std::allocator<rocksdb::CompressionType>>::_Vector_impl" = type { %"struct.std::_Vector_base<rocksdb::CompressionType, std::allocator<rocksdb::CompressionType>>::_Vector_impl_data" }
%"struct.std::_Vector_base<rocksdb::CompressionType, std::allocator<rocksdb::CompressionType>>::_Vector_impl_data" = type { ptr, ptr, ptr }
%"class.std::vector.398" = type { %"struct.std::_Vector_base.399" }
%"struct.std::_Vector_base.399" = type { %"struct.std::_Vector_base<int, std::allocator<int>>::_Vector_impl" }
%"struct.std::_Vector_base<int, std::allocator<int>>::_Vector_impl" = type { %"struct.std::_Vector_base<int, std::allocator<int>>::_Vector_impl_data" }
%"struct.std::_Vector_base<int, std::allocator<int>>::_Vector_impl_data" = type { ptr, ptr, ptr }
%"class.rocksdb::CompactionOptionsUniversal" = type <{ i32, i32, i32, i32, i32, i32, i32, i8, i8, [2 x i8] }>
%"struct.rocksdb::CompactionOptionsFIFO" = type { i64, i8, i64, %"class.std::vector.403" }
%"class.std::vector.403" = type { %"struct.std::_Vector_base.404" }
%"struct.std::_Vector_base.404" = type { %"struct.std::_Vector_base<rocksdb::FileTemperatureAge, std::allocator<rocksdb::FileTemperatureAge>>::_Vector_impl" }
%"struct.std::_Vector_base<rocksdb::FileTemperatureAge, std::allocator<rocksdb::FileTemperatureAge>>::_Vector_impl" = type { %"struct.std::_Vector_base<rocksdb::FileTemperatureAge, std::allocator<rocksdb::FileTemperatureAge>>::_Vector_impl_data" }
%"struct.std::_Vector_base<rocksdb::FileTemperatureAge, std::allocator<rocksdb::FileTemperatureAge>>::_Vector_impl_data" = type { ptr, ptr, ptr }
%"struct.rocksdb::CompressionOptions" = type <{ i32, i32, i32, i32, i32, i32, i8, [7 x i8], i64, i8, [3 x i8], i32, i8, [7 x i8] }>
%"class.std::shared_ptr.422" = type { %"class.std::__shared_ptr.423" }
%"class.std::__shared_ptr.423" = type { ptr, %"class.std::__shared_count" }
%"struct.rocksdb::ImmutableOptions" = type <{ %"struct.rocksdb::ImmutableDBOptions", %"struct.rocksdb::ImmutableCFOptions.base", [7 x i8] }>
%"struct.rocksdb::ImmutableCFOptions.base" = type <{ i8, i8, [6 x i8], ptr, %"class.rocksdb::InternalKeyComparator", %"class.std::shared_ptr.416", ptr, %"class.std::shared_ptr.419", i32, i32, i64, i8, [7 x i8], ptr, %"class.std::shared_ptr.408", %"class.std::vector.411", i32, i8, [3 x i8], i32, i8, i8, i8, i8, %"class.std::shared_ptr.390", %"class.std::vector.22", %"class.std::shared_ptr.425", %"class.std::shared_ptr.428", %"class.std::shared_ptr.35", i8 }>
%"struct.rocksdb::MutableCFOptions" = type { i64, i32, i64, double, i8, i64, i64, i8, i64, %"class.std::shared_ptr.390", double, i8, %"class.std::shared_ptr.422", i64, i64, i32, i32, i32, i64, i64, i32, i64, double, i64, i64, %"class.std::vector.398", %"struct.rocksdb::CompactionOptionsFIFO", %"class.rocksdb::CompactionOptionsUniversal", i64, i64, i8, i64, i64, i8, i8, double, double, i64, i32, i8, i64, i8, i8, i8, i8, [4 x i8], %"struct.rocksdb::CompressionOptions", %"struct.rocksdb::CompressionOptions", i8, i8, i32, i8, i8, i64, %"class.std::vector.393", i32, i32, i32, %"class.std::vector.78" }
%"class.std::unique_ptr.431" = type { %"struct.std::__uniq_ptr_data.432" }
%"struct.std::__uniq_ptr_data.432" = type { %"class.std::__uniq_ptr_impl.433" }
%"class.std::__uniq_ptr_impl.433" = type { %"class.std::tuple.434" }
%"class.std::tuple.434" = type { %"struct.std::_Tuple_impl.435" }
%"struct.std::_Tuple_impl.435" = type { %"struct.std::_Head_base.438" }
%"struct.std::_Head_base.438" = type { ptr }
%"class.std::unique_ptr.439" = type { %"struct.std::__uniq_ptr_data.440" }
%"struct.std::__uniq_ptr_data.440" = type { %"class.std::__uniq_ptr_impl.441" }
%"class.std::__uniq_ptr_impl.441" = type { %"class.std::tuple.442" }
%"class.std::tuple.442" = type { %"struct.std::_Tuple_impl.443" }
%"struct.std::_Tuple_impl.443" = type { %"struct.std::_Head_base.446" }
%"struct.std::_Head_base.446" = type { ptr }
%"class.std::unique_ptr.447" = type { %"struct.std::__uniq_ptr_data.448" }
%"struct.std::__uniq_ptr_data.448" = type { %"class.std::__uniq_ptr_impl.449" }
%"class.std::__uniq_ptr_impl.449" = type { %"class.std::tuple.450" }
%"class.std::tuple.450" = type { %"struct.std::_Tuple_impl.451" }
%"struct.std::_Tuple_impl.451" = type { %"struct.std::_Head_base.454" }
%"struct.std::_Head_base.454" = type { ptr }
%"class.std::unique_ptr.455" = type { %"struct.std::__uniq_ptr_data.456" }
%"struct.std::__uniq_ptr_data.456" = type { %"class.std::__uniq_ptr_impl.457" }
%"class.std::__uniq_ptr_impl.457" = type { %"class.std::tuple.458" }
%"class.std::tuple.458" = type { %"struct.std::_Tuple_impl.459" }
%"struct.std::_Tuple_impl.459" = type { %"struct.std::_Head_base.462" }
%"struct.std::_Head_base.462" = type { ptr }
%"class.rocksdb::MemTableList" = type { %"struct.std::atomic.68", %"struct.std::atomic.68", i32, ptr, i32, i8, i8, i64, %"struct.std::atomic.66", %"struct.std::atomic.68", i64 }
%"class.std::unique_ptr.463" = type { %"struct.std::__uniq_ptr_data.464" }
%"struct.std::__uniq_ptr_data.464" = type { %"class.std::__uniq_ptr_impl.465" }
%"class.std::__uniq_ptr_impl.465" = type { %"class.std::tuple.466" }
%"class.std::tuple.466" = type { %"struct.std::_Tuple_impl.467" }
%"struct.std::_Tuple_impl.467" = type { %"struct.std::_Head_base.470" }
%"struct.std::_Head_base.470" = type { ptr }
%"class.std::unique_ptr.471" = type { %"struct.std::__uniq_ptr_data.472" }
%"struct.std::__uniq_ptr_data.472" = type { %"class.std::__uniq_ptr_impl.473" }
%"class.std::__uniq_ptr_impl.473" = type { %"class.std::tuple.474" }
%"class.std::tuple.474" = type { %"struct.std::_Tuple_impl.475" }
%"struct.std::_Tuple_impl.475" = type { %"struct.std::_Head_base.478" }
%"struct.std::_Head_base.478" = type { ptr }
%"class.std::vector.479" = type { %"struct.std::_Vector_base.480" }
%"struct.std::_Vector_base.480" = type { %"struct.std::_Vector_base<std::shared_ptr<rocksdb::FSDirectory>, std::allocator<std::shared_ptr<rocksdb::FSDirectory>>>::_Vector_impl" }
%"struct.std::_Vector_base<std::shared_ptr<rocksdb::FSDirectory>, std::allocator<std::shared_ptr<rocksdb::FSDirectory>>>::_Vector_impl" = type { %"struct.std::_Vector_base<std::shared_ptr<rocksdb::FSDirectory>, std::allocator<std::shared_ptr<rocksdb::FSDirectory>>>::_Vector_impl_data" }
%"struct.std::_Vector_base<std::shared_ptr<rocksdb::FSDirectory>, std::allocator<std::shared_ptr<rocksdb::FSDirectory>>>::_Vector_impl_data" = type { ptr, ptr, ptr }
%"class.std::shared_ptr.484" = type { %"class.std::__shared_ptr.485" }
%"class.std::__shared_ptr.485" = type { ptr, %"class.std::__shared_count" }

; Function Attrs: mustprogress nounwind uwtable
define linkonce_odr noundef i32 @_ZNK7rocksdb16ColumnFamilyData12NumberLevelsEv(ptr noundef nonnull align 8 dereferenceable(2712) %0) #4 comdat align 2 {
  %2 = alloca ptr, align 8
  store ptr %0, ptr %2, align 8, !tbaa !54
  %3 = load ptr, ptr %2, align 8
  %4 = getelementptr inbounds nuw %"class.rocksdb::ColumnFamilyData", ptr %3, i32 0, i32 11
  %5 = getelementptr inbounds i8, ptr %4, i64 600
  %6 = getelementptr inbounds nuw %"struct.rocksdb::ImmutableCFOptions", ptr %5, i32 0, i32 19
  %7 = load i32, ptr %6, align 8, !tbaa !1205
  ret i32 %7
}

; Function Attrs: inlinehint mustprogress nounwind uwtable
define linkonce_odr noundef ptr @_ZN7rocksdb22static_cast_with_checkINS_22ColumnFamilyHandleImplENS_18ColumnFamilyHandleEEEPT_PT0_(ptr noundef %0) #1 comdat {
  %2 = alloca ptr, align 8
  %3 = alloca ptr, align 8
  store ptr %0, ptr %2, align 8, !tbaa !1150
  call void @llvm.lifetime.start.p0(i64 8, ptr %3) #5
  %4 = load ptr, ptr %2, align 8, !tbaa !1150
  store ptr %4, ptr %3, align 8, !tbaa !1170
  %5 = load ptr, ptr %3, align 8, !tbaa !1170
  call void @llvm.lifetime.end.p0(i64 8, ptr %3) #5
  ret ptr %5
}

; Function Attrs: mustprogress uwtable
define noundef i32 @_ZN7rocksdb6DBImpl12NumberLevelsEPNS_18ColumnFamilyHandleE(ptr noundef nonnull align 64 dereferenceable(6868) %0, ptr noundef %1) unnamed_addr #6 align 2 {
  %3 = alloca ptr, align 8
  %4 = alloca ptr, align 8
  %5 = alloca ptr, align 8
  store ptr %0, ptr %3, align 8, !tbaa !52
  store ptr %1, ptr %4, align 8, !tbaa !1150
  call void @llvm.lifetime.start.p0(i64 8, ptr %5) #5
  %6 = load ptr, ptr %4, align 8, !tbaa !1150
  %7 = call noundef ptr @_ZN7rocksdb22static_cast_with_checkINS_22ColumnFamilyHandleImplENS_18ColumnFamilyHandleEEEPT_PT0_(ptr noundef %6)
  store ptr %7, ptr %5, align 8, !tbaa !1170
  %8 = load ptr, ptr %5, align 8, !tbaa !1170
  %9 = load ptr, ptr %8, align 8, !tbaa !449
  %10 = getelementptr inbounds ptr, ptr %9, i64 6
  %11 = load ptr, ptr %10, align 8
  %12 = call noundef ptr %11(ptr noundef nonnull align 8 dereferenceable(32) %8)
  %13 = call noundef i32 @_ZNK7rocksdb16ColumnFamilyData12NumberLevelsEv(ptr noundef nonnull align 8 dereferenceable(2712) %12)
  call void @llvm.lifetime.end.p0(i64 8, ptr %5) #5
  ret i32 %13
}