; Function Attrs: mustprogress uwtable
define noundef i32 @_ZN7rocksdb6DBImpl12NumberLevelsEPNS_18ColumnFamilyHandleE(ptr noundef nonnull readnone align 64 captures(none) dereferenceable(6868) %0, ptr noundef %1) unnamed_addr #4 align 2 {
  %3 = load ptr, ptr %1, align 8, !tbaa !409
  %4 = getelementptr inbounds nuw i8, ptr %3, i64 48
  %5 = load ptr, ptr %4, align 8
  %6 = tail call noundef ptr %5(ptr noundef nonnull align 8 dereferenceable(32) %1)
  %7 = getelementptr inbounds nuw i8, ptr %6, i64 1688
  %8 = load i32, ptr %7, align 8, !tbaa !1164
  ret i32 %8
}